target datalayout = "e-m:e-p270:32:32-p271:32:32-p272:64:64-i64:64-i128:128-f80:128-n8:16:32:64-S128"
target triple = "x86_64-pc-linux-gnu"

%struct.Aig_Man_t_ = type { ptr, ptr, ptr, ptr, ptr, ptr, ptr, %struct.Aig_Obj_t_, i32, i32, i32, i32, i32, i32, [7 x i32], i32, ptr, i32, ptr, i32, ptr, i32, i32, i32, ptr, i32, i32, i32, i32, i32, ptr, ptr, i32, ptr, ptr, i32, ptr, ptr, i32, i32, i32, ptr, ptr, ptr, ptr, ptr, ptr, ptr, ptr, ptr, ptr, ptr, ptr, ptr, ptr, i32, ptr, ptr, ptr, ptr, i32, i64, i64, i64, ptr, ptr }
%struct.Aig_Obj_t_ = type { %union.anon, ptr, ptr, i64, i32, i32, %union.anon.0 }
%union.anon = type { ptr }
%union.anon.0 = type { ptr }

; Function Attrs: inlinehint nounwind uwtable
define internal ptr @Aig_ManGhost(ptr noundef %0) #2 {
  %2 = alloca ptr, align 8
  store ptr %0, ptr %2, align 8, !tbaa !3
  %3 = load ptr, ptr %2, align 8, !tbaa !3
  %4 = getelementptr inbounds nuw %struct.Aig_Man_t_, ptr %3, i32 0, i32 7
  ret ptr %4
}

; Function Attrs: inlinehint nounwind uwtable
define internal ptr @Aig_ObjCreateGhost(ptr noundef %0, ptr noundef %1, ptr noundef %2, i32 noundef %3) #2 {
  %5 = alloca ptr, align 8
  %6 = alloca ptr, align 8
  %7 = alloca ptr, align 8
  %8 = alloca i32, align 4
  %9 = alloca ptr, align 8
  store ptr %0, ptr %5, align 8, !tbaa !3
  store ptr %1, ptr %6, align 8, !tbaa !25
  store ptr %2, ptr %7, align 8, !tbaa !25
  store i32 %3, ptr %8, align 4, !tbaa !8
  call void @llvm.lifetime.start.p0(i64 8, ptr %9) #7
  %10 = load ptr, ptr %5, align 8, !tbaa !3
  %11 = call ptr @Aig_ManGhost(ptr noundef %10)
  store ptr %11, ptr %9, align 8, !tbaa !25
  %12 = load i32, ptr %8, align 4, !tbaa !8
  %13 = load ptr, ptr %9, align 8, !tbaa !25
  %14 = getelementptr inbounds nuw %struct.Aig_Obj_t_, ptr %13, i32 0, i32 3
  %15 = zext i32 %12 to i64
  %16 = load i64, ptr %14, align 8
  %17 = and i64 %15, 7
  %18 = and i64 %16, -8
  %19 = or i64 %18, %17
  store i64 %19, ptr %14, align 8
  %20 = load ptr, ptr %7, align 8, !tbaa !25
  %21 = icmp eq ptr %20, null
  br i1 %21, label %32, label %22

22:                                               ; preds = %4
  %23 = load ptr, ptr %6, align 8, !tbaa !25
  %24 = call ptr @Aig_Regular(ptr noundef %23)
  %25 = getelementptr inbounds nuw %struct.Aig_Obj_t_, ptr %24, i32 0, i32 5
  %26 = load i32, ptr %25, align 4, !tbaa !32
  %27 = load ptr, ptr %7, align 8, !tbaa !25
  %28 = call ptr @Aig_Regular(ptr noundef %27)
  %29 = getelementptr inbounds nuw %struct.Aig_Obj_t_, ptr %28, i32 0, i32 5
  %30 = load i32, ptr %29, align 4, !tbaa !32
  %31 = icmp slt i32 %26, %30
  br i1 %31, label %32, label %39

32:                                               ; preds = %22, %4
  %33 = load ptr, ptr %6, align 8, !tbaa !25
  %34 = load ptr, ptr %9, align 8, !tbaa !25
  %35 = getelementptr inbounds nuw %struct.Aig_Obj_t_, ptr %34, i32 0, i32 1
  store ptr %33, ptr %35, align 8, !tbaa !29
  %36 = load ptr, ptr %7, align 8, !tbaa !25
  %37 = load ptr, ptr %9, align 8, !tbaa !25
  %38 = getelementptr inbounds nuw %struct.Aig_Obj_t_, ptr %37, i32 0, i32 2
  store ptr %36, ptr %38, align 8, !tbaa !30
  br label %46

39:                                               ; preds = %22
  %40 = load ptr, ptr %7, align 8, !tbaa !25
  %41 = load ptr, ptr %9, align 8, !tbaa !25
  %42 = getelementptr inbounds nuw %struct.Aig_Obj_t_, ptr %41, i32 0, i32 1
  store ptr %40, ptr %42, align 8, !tbaa !29
  %43 = load ptr, ptr %6, align 8, !tbaa !25
  %44 = load ptr, ptr %9, align 8, !tbaa !25
  %45 = getelementptr inbounds nuw %struct.Aig_Obj_t_, ptr %44, i32 0, i32 2
  store ptr %43, ptr %45, align 8, !tbaa !30
  br label %46

46:                                               ; preds = %39, %32
  %47 = load ptr, ptr %9, align 8, !tbaa !25
  call void @llvm.lifetime.end.p0(i64 8, ptr %9) #7
  ret ptr %47
}

; Function Attrs: inlinehint nounwind uwtable
define internal ptr @Aig_Regular(ptr noundef %0) #2 {
  %2 = alloca ptr, align 8
  store ptr %0, ptr %2, align 8, !tbaa !25
  %3 = load ptr, ptr %2, align 8, !tbaa !25
  %4 = ptrtoint ptr %3 to i64
  %5 = and i64 %4, -2
  %6 = inttoptr i64 %5 to ptr
  ret ptr %6
}

; Function Attrs: inlinehint nounwind uwtable
define internal ptr @Aig_ManConst1(ptr noundef %0) #2 {
  %2 = alloca ptr, align 8
  store ptr %0, ptr %2, align 8, !tbaa !3
  %3 = load ptr, ptr %2, align 8, !tbaa !3
  %4 = getelementptr inbounds nuw %struct.Aig_Man_t_, ptr %3, i32 0, i32 6
  %5 = load ptr, ptr %4, align 8, !tbaa !26
  ret ptr %5
}

; Function Attrs: inlinehint nounwind uwtable
define internal ptr @Aig_Not(ptr noundef %0) #2 {
  %2 = alloca ptr, align 8
  store ptr %0, ptr %2, align 8, !tbaa !25
  %3 = load ptr, ptr %2, align 8, !tbaa !25
  %4 = ptrtoint ptr %3 to i64
  %5 = xor i64 %4, 1
  %6 = inttoptr i64 %5 to ptr
  ret ptr %6
}

; Function Attrs: inlinehint nounwind uwtable
define internal ptr @Aig_ManConst0(ptr noundef %0) #2 {
  %2 = alloca ptr, align 8
  store ptr %0, ptr %2, align 8, !tbaa !3
  %3 = load ptr, ptr %2, align 8, !tbaa !3
  %4 = getelementptr inbounds nuw %struct.Aig_Man_t_, ptr %3, i32 0, i32 6
  %5 = load ptr, ptr %4, align 8, !tbaa !26
  %6 = call ptr @Aig_Not(ptr noundef %5)
  ret ptr %6
}

; Function Attrs: nounwind uwtable
define ptr @Aig_TableLookupInt(ptr noundef %0, ptr noundef %1, ptr noundef %2) #0 {
  %4 = alloca ptr, align 8
  %5 = alloca ptr, align 8
  %6 = alloca ptr, align 8
  %7 = alloca ptr, align 8
  store ptr %0, ptr %5, align 8, !tbaa !3
  store ptr %1, ptr %6, align 8, !tbaa !25
  store ptr %2, ptr %7, align 8, !tbaa !25
  %8 = load ptr, ptr %6, align 8, !tbaa !25
  %9 = load ptr, ptr %7, align 8, !tbaa !25
  %10 = icmp eq ptr %8, %9
  br i1 %10, label %11, label %13

11:                                               ; preds = %3
  %12 = load ptr, ptr %6, align 8, !tbaa !25
  store ptr %12, ptr %4, align 8
  br label %69

13:                                               ; preds = %3
  %14 = load ptr, ptr %6, align 8, !tbaa !25
  %15 = load ptr, ptr %5, align 8, !tbaa !3
  %16 = call ptr @Aig_ManConst0(ptr noundef %15)
  %17 = icmp eq ptr %14, %16
  br i1 %17, label %28, label %18

18:                                               ; preds = %13
  %19 = load ptr, ptr %7, align 8, !tbaa !25
  %20 = load ptr, ptr %5, align 8, !tbaa !3
  %21 = call ptr @Aig_ManConst0(ptr noundef %20)
  %22 = icmp eq ptr %19, %21
  br i1 %22, label %28, label %23

23:                                               ; preds = %18
  %24 = load ptr, ptr %6, align 8, !tbaa !25
  %25 = load ptr, ptr %7, align 8, !tbaa !25
  %26 = call ptr @Aig_Not(ptr noundef %25)
  %27 = icmp eq ptr %24, %26
  br i1 %27, label %28, label %31

28:                                               ; preds = %23, %18, %13
  %29 = load ptr, ptr %5, align 8, !tbaa !3
  %30 = call ptr @Aig_ManConst0(ptr noundef %29)
  store ptr %30, ptr %4, align 8
  br label %69

31:                                               ; preds = %23
  %32 = load ptr, ptr %6, align 8, !tbaa !25
  %33 = load ptr, ptr %5, align 8, !tbaa !3
  %34 = call ptr @Aig_ManConst1(ptr noundef %33)
  %35 = icmp eq ptr %32, %34
  br i1 %35, label %36, label %38

36:                                               ; preds = %31
  %37 = load ptr, ptr %7, align 8, !tbaa !25
  store ptr %37, ptr %4, align 8
  br label %69

38:                                               ; preds = %31
  %39 = load ptr, ptr %7, align 8, !tbaa !25
  %40 = load ptr, ptr %5, align 8, !tbaa !3
  %41 = call ptr @Aig_ManConst1(ptr noundef %40)
  %42 = icmp eq ptr %39, %41
  br i1 %42, label %43, label %45

43:                                               ; preds = %38
  %44 = load ptr, ptr %6, align 8, !tbaa !25
  store ptr %44, ptr %4, align 8
  br label %69

45:                                               ; preds = %38
  %46 = load ptr, ptr %6, align 8, !tbaa !25
  %47 = call ptr @Aig_Regular(ptr noundef %46)
  %48 = getelementptr inbounds nuw %struct.Aig_Obj_t_, ptr %47, i32 0, i32 5
  %49 = load i32, ptr %48, align 4, !tbaa !32
  %50 = load ptr, ptr %7, align 8, !tbaa !25
  %51 = call ptr @Aig_Regular(ptr noundef %50)
  %52 = getelementptr inbounds nuw %struct.Aig_Obj_t_, ptr %51, i32 0, i32 5
  %53 = load i32, ptr %52, align 4, !tbaa !32
  %54 = icmp slt i32 %49, %53
  br i1 %54, label %55, label %62

55:                                               ; preds = %45
  %56 = load ptr, ptr %5, align 8, !tbaa !3
  %57 = load ptr, ptr %5, align 8, !tbaa !3
  %58 = load ptr, ptr %6, align 8, !tbaa !25
  %59 = load ptr, ptr %7, align 8, !tbaa !25
  %60 = call ptr @Aig_ObjCreateGhost(ptr noundef %57, ptr noundef %58, ptr noundef %59, i32 noundef 5)
  %61 = call ptr @Aig_TableLookup(ptr noundef %56, ptr noundef %60)
  store ptr %61, ptr %4, align 8
  br label %69

62:                                               ; preds = %45
  %63 = load ptr, ptr %5, align 8, !tbaa !3
  %64 = load ptr, ptr %5, align 8, !tbaa !3
  %65 = load ptr, ptr %7, align 8, !tbaa !25
  %66 = load ptr, ptr %6, align 8, !tbaa !25
  %67 = call ptr @Aig_ObjCreateGhost(ptr noundef %64, ptr noundef %65, ptr noundef %66, i32 noundef 5)
  %68 = call ptr @Aig_TableLookup(ptr noundef %63, ptr noundef %67)
  store ptr %68, ptr %4, align 8
  br label %69

69:                                               ; preds = %62, %55, %43, %36, %28, %11
  %70 = load ptr, ptr %4, align 8
  ret ptr %70
}