; Function Attrs: nounwind uwtable
define ptr @Aig_TableLookupInt(ptr noundef %0, ptr noundef %1, ptr noundef %2) local_unnamed_addr #0 {
  %4 = icmp eq ptr %1, %2
  br i1 %4, label %52, label %5

5:                                                ; preds = %3
  %6 = getelementptr i8, ptr %0, i64 48
  %.val = load ptr, ptr %6, align 8, !tbaa !27
  %7 = ptrtoint ptr %.val to i64
  %8 = xor i64 %7, 1
  %9 = inttoptr i64 %8 to ptr
  %10 = icmp eq ptr %1, %9
  %11 = icmp eq ptr %2, %9
  %or.cond = or i1 %10, %11
  br i1 %or.cond, label %52, label %12

12:                                               ; preds = %5
  %13 = ptrtoint ptr %2 to i64
  %14 = xor i64 %13, 1
  %15 = inttoptr i64 %14 to ptr
  %16 = icmp eq ptr %1, %15
  br i1 %16, label %52, label %17

17:                                               ; preds = %12
  %18 = icmp eq ptr %1, %.val
  br i1 %18, label %52, label %19

19:                                               ; preds = %17
  %20 = icmp eq ptr %2, %.val
  br i1 %20, label %52, label %21

21:                                               ; preds = %19
  %22 = ptrtoint ptr %1 to i64
  %23 = and i64 %22, -2
  %24 = inttoptr i64 %23 to ptr
  %25 = getelementptr inbounds nuw i8, ptr %24, i64 36
  %26 = load i32, ptr %25, align 4, !tbaa !32
  %27 = and i64 %13, -2
  %28 = inttoptr i64 %27 to ptr
  %29 = getelementptr inbounds nuw i8, ptr %28, i64 36
  %30 = load i32, ptr %29, align 4, !tbaa !32
  %31 = icmp slt i32 %26, %30
  %32 = getelementptr inbounds nuw i8, ptr %0, i64 80
  %33 = load i64, ptr %32, align 8
  %34 = and i64 %33, -8
  %35 = or disjoint i64 %34, 5
  store i64 %35, ptr %32, align 8
  br i1 %31, label %36, label %42

36:                                               ; preds = %21
  %37 = icmp eq ptr %2, null
  br i1 %37, label %.sink.split, label %38

38:                                               ; preds = %36
  %39 = load i32, ptr %25, align 4, !tbaa !32
  %40 = load i32, ptr %29, align 4, !tbaa !32
  %41 = icmp slt i32 %39, %40
  %spec.select.i = select i1 %41, ptr %1, ptr %2
  %spec.select17.i = select i1 %41, ptr %2, ptr %1
  br label %.sink.split

42:                                               ; preds = %21
  %43 = icmp eq ptr %1, null
  br i1 %43, label %.sink.split, label %44

44:                                               ; preds = %42
  %45 = load i32, ptr %29, align 4, !tbaa !32
  %46 = load i32, ptr %25, align 4, !tbaa !32
  %47 = icmp slt i32 %45, %46
  %spec.select.i33 = select i1 %47, ptr %2, ptr %1
  %spec.select17.i34 = select i1 %47, ptr %1, ptr %2
  br label %.sink.split

.sink.split:                                      ; preds = %44, %42, %38, %36
  %.sink15.i35.sink = phi ptr [ %1, %36 ], [ %spec.select.i, %38 ], [ %2, %42 ], [ %spec.select.i33, %44 ]
  %.sink.i36.sink = phi ptr [ null, %36 ], [ %spec.select17.i, %38 ], [ null, %42 ], [ %spec.select17.i34, %44 ]
  %48 = getelementptr inbounds nuw i8, ptr %0, i64 64
  store ptr %.sink15.i35.sink, ptr %48, align 8, !tbaa !29
  %49 = getelementptr inbounds nuw i8, ptr %0, i64 72
  store ptr %.sink.i36.sink, ptr %49, align 8, !tbaa !30
  %50 = getelementptr inbounds nuw i8, ptr %0, i64 56
  %51 = tail call ptr @Aig_TableLookup(ptr noundef nonnull %0, ptr noundef nonnull %50) #7
  br label %52

52:                                               ; preds = %.sink.split, %5, %12, %19, %17, %3
  %.0 = phi ptr [ %1, %3 ], [ %2, %17 ], [ %1, %19 ], [ %9, %12 ], [ %9, %5 ], [ %51, %.sink.split ]
  ret ptr %.0
}